; Function Attrs: mustprogress uwtable
define noundef zeroext i16 @_ZN16checked_buffer_t5sget2Ei(ptr noundef nonnull readonly align 8 captures(none) dereferenceable(48) %0, i32 noundef %1) local_unnamed_addr #4 align 2 {
  %3 = getelementptr inbounds nuw i8, ptr %0, i64 16
  %4 = load i32, ptr %3, align 8, !tbaa !170
  %5 = icmp sge i32 %1, %4
  %6 = icmp slt i32 %1, 0
  %or.cond.i = or i1 %6, %5
  br i1 %or.cond.i, label %7, label %_ZN16checked_buffer_t11checkoffsetEi.exit

7:                                                ; preds = %2
  %8 = tail call ptr @__cxa_allocate_exception(i64 4) #30
  store i32 4, ptr %8, align 16, !tbaa !20
  tail call void @__cxa_throw(ptr nonnull %8, ptr nonnull @_ZTI17LibRaw_exceptions, ptr null) #31
  unreachable

_ZN16checked_buffer_t11checkoffsetEi.exit:        ; preds = %2
  %9 = add nuw nsw i32 %1, 2
  %.not = icmp slt i32 %9, %4
  br i1 %.not, label %_ZN16checked_buffer_t11checkoffsetEi.exit4, label %10

10:                                               ; preds = %_ZN16checked_buffer_t11checkoffsetEi.exit
  %11 = tail call ptr @__cxa_allocate_exception(i64 4) #30
  store i32 4, ptr %11, align 16, !tbaa !20
  tail call void @__cxa_throw(ptr nonnull %11, ptr nonnull @_ZTI17LibRaw_exceptions, ptr null) #31
  unreachable

_ZN16checked_buffer_t11checkoffsetEi.exit4:       ; preds = %_ZN16checked_buffer_t11checkoffsetEi.exit
  %12 = load i16, ptr %0, align 8, !tbaa !160
  %13 = getelementptr inbounds nuw i8, ptr %0, i64 8
  %14 = load ptr, ptr %13, align 8, !tbaa !169
  %15 = zext nneg i32 %1 to i64
  %16 = getelementptr inbounds nuw i8, ptr %14, i64 %15
  %17 = tail call noundef zeroext i16 @_Z19libraw_sget2_staticsPh(i16 noundef signext %12, ptr noundef %16)
  ret i16 %17
}